(dp1
S'docs'
p2
(dp3
S'doc:mockup/mockup.html'
p4
(dp5
S'filters-data'
p6
(lp7
sS'output-data'
p8
(S'generic'
p9
S'mockup/mockup.html'
p10
S'.html'
p11
S'ad23218c2f777688ac447762ff08686a-000'
p12
(dp13
S'help'
p14
S'Data type representing generic binary or text-based data in a single blob.'
p15
sS'title'
p16
NsS'storage-type'
p17
g9
sS'shortcut'
p18
NsS'canonical-name'
p19
g10
sS'canonical-output'
p20
I01
sS'output-name'
p21
NsS'aliases'
p22
(lp23
g9
astp24
sg16
S'Mockup'
p25
sS'finish_time'
p26
F1412287289.2338581
sS'start_time'
p27
F1412287289.2336271
sS'input-data'
p28
(g9
g10
g11
g12
(dp29
g14
g15
sg16
Nsg17
g9
sg18
Nsg19
g10
sg20
I01
sg21
Nsg22
g23
stp30
sS'state'
p31
S'running'
p32
sS'elapsed'
p33
F0.00023102760314941406
ssS'doc:mockup/style.css'
p34
(dp35
g6
(lp36
sg8
(g9
S'mockup/style.css'
p37
S'.css'
p38
S'478bc79231307fd808ea6056de6912d8-000'
p39
(dp40
g14
g15
sg16
Nsg17
g9
sg18
Nsg19
g37
sg20
I01
sg21
Nsg22
g23
stp41
sg16
S'Style'
p42
sg26
F1412287289.2344339
sg27
F1412287289.2342319
sg28
(g9
g37
g38
g39
(dp43
g14
g15
sg16
Nsg17
g9
sg18
Nsg19
g37
sg20
I01
sg21
Nsg22
g23
stp44
sg31
g32
sg33
F0.00020194053649902344
ssS'doc:mockup/style.css|idio'
p45
(dp46
g6
(lp47
(S'sectioned'
p48
S'mockup/style.css|idio'
p49
S'.html'
p50
S'0de2a7466f7039edd488923d4fafb6ce-001-idio'
p51
(dp52
g14
S'A document with named, ordered sections.\n\nSections can also contain arbitrary metadata.'
p53
sg16
Nsg17
S'jsonsectioned'
p54
sg18
Nsg19
S'mockup/style.css.html'
p55
sg20
Nsg21
Nsg22
(lp56
g48
astp57
asg8
(g48
g49
g50
g51
(dp58
g14
g53
sg16
Nsg17
g54
sg18
Nsg19
g55
sg20
Nsg21
Nsg22
g56
stp59
sg16
S'Style.Css'
p60
sg26
F1412287289.166774
sg27
F1412287289.141629
sg28
(g9
S'mockup/style.css'
p61
S'.css'
p62
S'0de2a7466f7039edd488923d4fafb6ce-000'
p63
(dp64
g14
g15
sg16
Nsg17
g9
sg18
Nsg19
g61
sg20
Nsg21
Nsg22
g23
stp65
sg31
g32
sg33
F0.025145053863525391
ssS'doc:mockup/mockup.html|htmlsections'
p66
(dp67
g6
(lp68
(g48
S'mockup/mockup.html|htmlsections'
p69
g50
S'9b4ba097823ce178a56b24e2d89f2f23-001-htmlsections'
p70
(dp71
g14
g53
sg16
Nsg17
g54
sg18
Nsg19
S'mockup/mockup.html'
p72
sg20
I01
sg21
Nsg22
g56
stp73
asg8
(g48
g69
g50
g70
(dp74
g14
g53
sg16
Nsg17
g54
sg18
Nsg19
g72
sg20
I01
sg21
Nsg22
g56
stp75
sg16
S'Mockup'
p76
sg26
F1412287289.136626
sg27
F1412287289.1254759
sg28
(g9
S'mockup/mockup.html'
p77
S'.html'
p78
S'9b4ba097823ce178a56b24e2d89f2f23-000'
p79
(dp80
g14
g15
sg16
Nsg17
g9
sg18
Nsg19
g77
sg20
Nsg21
Nsg22
g23
stp81
sg31
g32
sg33
F0.011150121688842773
ssS'doc:index.html|jinja'
p82
(dp83
g6
(lp84
(g9
S'index.html|jinja'
p85
S'.html'
p86
S'ca75b38e46191d369efaaf1029c29094-001-jinja'
p87
(dp88
g14
g15
sg16
Nsg17
g9
sg18
Nsg19
S'index.html'
p89
sg20
I01
sg21
Nsg22
g23
stp90
asg8
(g9
g85
g86
g87
(dp91
g14
g15
sg16
Nsg17
g9
sg18
Nsg19
g89
sg20
I01
sg21
Nsg22
g23
stp92
sg16
S'Index'
p93
sg26
F1412287289.2330019
sg27
F1412287289.1679881
sg28
(g9
S'index.html'
p94
g86
S'ca75b38e46191d369efaaf1029c29094-000'
p95
(dp96
g14
g15
sg16
Nsg17
g9
sg18
Nsg19
g94
sg20
Nsg21
Nsg22
g23
stp97
sg31
g32
sg33
F0.065013885498046875
ssS'doc:mockup/mockup.html|htmlsections|pyg'
p98
(dp99
g6
(lp100
(g48
S'mockup/mockup.html|htmlsections'
p101
g50
S'25e4390ad7148b90a089a387e78a98a9-001-htmlsections'
p102
(dp103
g14
g53
sg16
Nsg17
g54
sg18
Nsg19
S'mockup/mockup.html'
p104
sg20
I01
sg21
Nsg22
g56
stp105
a(g48
S'mockup/mockup.html|htmlsections|pyg'
p106
g50
S'25e4390ad7148b90a089a387e78a98a9-002-htmlsections-pyg'
p107
(dp108
g14
g53
sg16
Nsg17
g54
sg18
Nsg19
S'mockup/mockup.html.html'
p109
sg20
Nsg21
Nsg22
g56
stp110
asg8
(g48
g106
g50
g107
(dp111
g14
g53
sg16
Nsg17
g54
sg18
Nsg19
g109
sg20
Nsg21
Nsg22
g56
stp112
sg16
S'Mockup.Html'
p113
sg26
F1412287289.1412539
sg27
F1412287289.1370621
sg28
(g9
S'mockup/mockup.html'
p114
S'.html'
p115
S'25e4390ad7148b90a089a387e78a98a9-000'
p116
(dp117
g14
g15
sg16
Nsg17
g9
sg18
Nsg19
g114
sg20
Nsg21
Nsg22
g23
stp118
sg31
g32
sg33
F0.0041918754577636719
sssS'filters_used'
p119
(lp120
S'htmlsections'
p121
aS'htmlsections'
p122
aS'pyg'
p123
aS'idio'
p124
aS'jinja'
p125
ag121
ag122
ag123
ag124
ag125
asS'uuid'
p126
S'c88bc9f3-f97e-42a6-ab5b-1c6705660f39'
p127
sS'doc_keys'
p128
(dp129
g87
S'doc:index.html|jinja'
p130
sg107
S'doc:mockup/mockup.html|htmlsections|pyg'
p131
sg70
S'doc:mockup/mockup.html|htmlsections'
p132
sg39
S'doc:mockup/style.css'
p133
sg51
S'doc:mockup/style.css|idio'
p134
sg12
S'doc:mockup/mockup.html'
p135
ss.